ARM GAS  C:\Users\11464\AppData\Local\Temp\ccilCbG6.s 			page 1


   1              		.cpu cortex-m7
   2              		.arch armv7e-m
   3              		.fpu fpv5-d16
   4              		.eabi_attribute 28, 1
   5              		.eabi_attribute 20, 1
   6              		.eabi_attribute 21, 1
   7              		.eabi_attribute 23, 3
   8              		.eabi_attribute 24, 1
   9              		.eabi_attribute 25, 1
  10              		.eabi_attribute 26, 1
  11              		.eabi_attribute 30, 1
  12              		.eabi_attribute 34, 1
  13              		.eabi_attribute 18, 4
  14              		.file	"IMU_Task.c"
  15              		.text
  16              	.Ltext0:
  17              		.cfi_sections	.debug_frame
  18              		.file 1 "Application/Src/IMU_Task.c"
  19              		.section	.text.IMU_Init,"ax",%progbits
  20              		.align	1
  21              		.global	IMU_Init
  22              		.syntax unified
  23              		.thumb
  24              		.thumb_func
  26              	IMU_Init:
  27              	.LFB149:
   1:Application/Src/IMU_Task.c **** /**
   2:Application/Src/IMU_Task.c ****  *******************************************************************************
   3:Application/Src/IMU_Task.c ****  * @file        IMU_Task.c
   4:Application/Src/IMU_Task.c ****  * @brief       IMU姿态解算任务 - 实现
   5:Application/Src/IMU_Task.c ****  * @details     基于Mahony互补滤波器的IMU姿态解算方案
   6:Application/Src/IMU_Task.c ****  *
   7:Application/Src/IMU_Task.c ****  *  系统工作流程
   8:Application/Src/IMU_Task.c ****  *  ============
   9:Application/Src/IMU_Task.c ****  *  1. 上电 → IMU_Init() 初始化PID、启动PWM加热、等待传感器就绪
  10:Application/Src/IMU_Task.c ****  *  2. 以 1kHz 循环执行：
  11:Application/Src/IMU_Task.c ****  *     a) IMU_temp_Ctrl()       — 每 300ms 一次温度PID控制
  12:Application/Src/IMU_Task.c ****  *     b) Gyro_Init()           — 前 1000ms 采集零偏均值
  13:Application/Src/IMU_Task.c ****  *     c) IMU_Data_Read()       — 读取传感器 → 减零偏 → Mahony解算姿态角
  14:Application/Src/IMU_Task.c ****  *  3. 校准完成后，roll/pitch/yaw 姿态角开始更新
  15:Application/Src/IMU_Task.c ****  *
  16:Application/Src/IMU_Task.c ****  *  关键数据结构
  17:Application/Src/IMU_Task.c ****  *  ============
  18:Application/Src/IMU_Task.c ****  *  - IMU_Data:    存储加速度、陀螺仪、温度、姿态角（roll/pitch/yaw）
  19:Application/Src/IMU_Task.c ****  *  - MahonyAHRS:  Mahony互补滤波器状态（四元数 + 中间变量）
  20:Application/Src/IMU_Task.c ****  *  - gyro_init:   陀螺仪三轴零偏值，校准完成后不再变化
  21:Application/Src/IMU_Task.c ****  *  - pid_temp:    温度PID控制器实例
  22:Application/Src/IMU_Task.c ****  *******************************************************************************
  23:Application/Src/IMU_Task.c ****  */
  24:Application/Src/IMU_Task.c **** #include "IMU_Task.h"
  25:Application/Src/IMU_Task.c **** 
  26:Application/Src/IMU_Task.c **** /*============================================================================
  27:Application/Src/IMU_Task.c ****  * 陀螺仪校准状态宏
  28:Application/Src/IMU_Task.c ****  *============================================================================*/
  29:Application/Src/IMU_Task.c **** #define Gyro_Init_Flag 0    /**< 校准中：累加原始数据计算零偏均值       */
  30:Application/Src/IMU_Task.c **** #define Gyro_Read_Flag 1    /**< 校准完成：正常运行，使用修正后数据     */
  31:Application/Src/IMU_Task.c **** 
ARM GAS  C:\Users\11464\AppData\Local\Temp\ccilCbG6.s 			page 2


  32:Application/Src/IMU_Task.c **** /*============================================================================
  33:Application/Src/IMU_Task.c ****  * 全局变量
  34:Application/Src/IMU_Task.c ****  *============================================================================*/
  35:Application/Src/IMU_Task.c **** Mahony_t    MahonyAHRS    = {0};           /**< Mahony滤波器状态结构体         */
  36:Application/Src/IMU_Task.c **** IMU_Data_t  IMU_Data      = {0};           /**< IMU传感器数据与姿态角          */
  37:Application/Src/IMU_Task.c **** float       gyro_init[3]  = {0};           /**< 陀螺仪三轴零偏值              */
  38:Application/Src/IMU_Task.c **** pid_type_def pid_temp;                      /**< 温度PID控制器                 */
  39:Application/Src/IMU_Task.c **** justfloat_t IMU_jf;
  40:Application/Src/IMU_Task.c **** float       pid_temp_args[3] = {            /**< 温度PID参数 {Kp, Ki, Kd}      */
  41:Application/Src/IMU_Task.c ****     400.0f,                                 /**< 比例系数                      */
  42:Application/Src/IMU_Task.c ****     50.0f,                                  /**< 积分系数                      */
  43:Application/Src/IMU_Task.c ****     12.0f                                   /**< 微分系数                      */
  44:Application/Src/IMU_Task.c **** };
  45:Application/Src/IMU_Task.c **** float gyro_raw[3] = {0};                    /**< 陀螺仪原始数据缓存            */
  46:Application/Src/IMU_Task.c **** float gyro_sum[3] = {0};                    /**< 陀螺仪原始数据累加和缓存   */
  47:Application/Src/IMU_Task.c **** /*============================================================================
  48:Application/Src/IMU_Task.c ****  * 调试标志
  49:Application/Src/IMU_Task.c ****  *============================================================================*/
  50:Application/Src/IMU_Task.c **** #define DEBUG 1
  51:Application/Src/IMU_Task.c **** #if DEBUG
  52:Application/Src/IMU_Task.c **** int is_temp_err = 0;    /**< 温度异常标志（超温时置1） */
  53:Application/Src/IMU_Task.c **** int is_err      = 0;    /**< 传感器离线标志（初始化失败时置1） */
  54:Application/Src/IMU_Task.c **** float max_out1 = 8000.0f;
  55:Application/Src/IMU_Task.c **** float max_iout1 = 5500.0f;
  56:Application/Src/IMU_Task.c **** #endif
  57:Application/Src/IMU_Task.c **** 
  58:Application/Src/IMU_Task.c **** /*============================================================================
  59:Application/Src/IMU_Task.c ****  * 模块内部状态变量
  60:Application/Src/IMU_Task.c ****  *============================================================================*/
  61:Application/Src/IMU_Task.c **** uint8_t Init_Status = Gyro_Init_Flag;   /**< 陀螺仪校准状态，初值为"校准中" */
  62:Application/Src/IMU_Task.c **** 
  63:Application/Src/IMU_Task.c **** /**
  64:Application/Src/IMU_Task.c ****  *******************************************************************************
  65:Application/Src/IMU_Task.c ****  * @brief       IMU_Task - IMU主任务（RTOS线程入口）
  66:Application/Src/IMU_Task.c ****  * @param       argument  RTOS线程参数（未使用）
  67:Application/Src/IMU_Task.c ****  * @retval      void
  68:Application/Src/IMU_Task.c ****  * @details     上电初始化后以1kHz频率循环执行温控、零偏校准和姿态解算。
  69:Application/Src/IMU_Task.c ****  *              校准完成后（~1秒）姿态角开始正常输出。
  70:Application/Src/IMU_Task.c ****  *******************************************************************************
  71:Application/Src/IMU_Task.c ****  */
  72:Application/Src/IMU_Task.c **** void IMU_Task(void *argument)
  73:Application/Src/IMU_Task.c **** {
  74:Application/Src/IMU_Task.c ****     IMU_Init();                             /* 传感器及外设初始化              */
  75:Application/Src/IMU_Task.c ****     while (1)
  76:Application/Src/IMU_Task.c ****     {
  77:Application/Src/IMU_Task.c ****         osDelay(1);                         /* 1ms 周期 = 1kHz 控制/解算频率  */
  78:Application/Src/IMU_Task.c ****         IMU_temp_Ctrl();                    /* 温度PID控制（内部300ms分频）    */
  79:Application/Src/IMU_Task.c ****         IMU_Data_Read();                    /* 读取传感器 + Mahony姿态解算    */
  80:Application/Src/IMU_Task.c ****         Gyro_Init(&Init_Status);            /* 陀螺仪零偏校准状态机           */
  81:Application/Src/IMU_Task.c ****     }
  82:Application/Src/IMU_Task.c **** }
  83:Application/Src/IMU_Task.c **** 
  84:Application/Src/IMU_Task.c **** /**
  85:Application/Src/IMU_Task.c ****  *******************************************************************************
  86:Application/Src/IMU_Task.c ****  * @brief       IMU_Init - IMU系统初始化
  87:Application/Src/IMU_Task.c ****  * @param       void
  88:Application/Src/IMU_Task.c ****  * @retval      void
ARM GAS  C:\Users\11464\AppData\Local\Temp\ccilCbG6.s 			page 3


  89:Application/Src/IMU_Task.c ****  * @details     执行以下初始化步骤：
  90:Application/Src/IMU_Task.c ****  *              1. 初始化温度PID控制器（位置式PID）
  91:Application/Src/IMU_Task.c ****  *              2. 启动TIM3 CH4 PWM输出（加热元件驱动）
  92:Application/Src/IMU_Task.c ****  *              3. 等待2秒让BMI088传感器内部上电稳定
  93:Application/Src/IMU_Task.c ****  *              4. 配置Mahony滤波器采样频率为1kHz
  94:Application/Src/IMU_Task.c ****  *              5. 检测BMI088在线状态，若离线则循环重试（间隔1秒）
  95:Application/Src/IMU_Task.c ****  *******************************************************************************
  96:Application/Src/IMU_Task.c ****  */
  97:Application/Src/IMU_Task.c **** void IMU_Init(void)
  98:Application/Src/IMU_Task.c **** {
  28              		.loc 1 98 1 view -0
  29              		.cfi_startproc
  30              		@ args = 0, pretend = 0, frame = 0
  31              		@ frame_needed = 0, uses_anonymous_args = 0
  32 0000 08B5     		push	{r3, lr}
  33              	.LCFI0:
  34              		.cfi_def_cfa_offset 8
  35              		.cfi_offset 3, -8
  36              		.cfi_offset 14, -4
  99:Application/Src/IMU_Task.c ****     /* ---- 初始化温度PID控制器 ---- */
 100:Application/Src/IMU_Task.c ****     PID_init(&pid_temp, PID_POSITION, pid_temp_args, max_out1, max_iout1);
  37              		.loc 1 100 5 view .LVU1
  38 0002 114B     		ldr	r3, .L5
  39 0004 D3ED000A 		vldr.32	s1, [r3]
  40 0008 104B     		ldr	r3, .L5+4
  41 000a 93ED000A 		vldr.32	s0, [r3]
  42 000e 104A     		ldr	r2, .L5+8
  43 0010 0021     		movs	r1, #0
  44 0012 1048     		ldr	r0, .L5+12
  45 0014 FFF7FEFF 		bl	PID_init
  46              	.LVL0:
 101:Application/Src/IMU_Task.c **** 
 102:Application/Src/IMU_Task.c ****     /* ---- 启动加热PWM输出 ---- */
 103:Application/Src/IMU_Task.c ****     HAL_TIM_PWM_Start(&htim3, TIM_CHANNEL_4);
  47              		.loc 1 103 5 view .LVU2
  48 0018 0C21     		movs	r1, #12
  49 001a 0F48     		ldr	r0, .L5+16
  50 001c FFF7FEFF 		bl	HAL_TIM_PWM_Start
  51              	.LVL1:
 104:Application/Src/IMU_Task.c **** 
 105:Application/Src/IMU_Task.c ****     /* ---- 等待传感器上电稳定（3秒） ---- */
 106:Application/Src/IMU_Task.c ****     osDelay(2000);
  52              		.loc 1 106 5 view .LVU3
  53 0020 4FF4FA60 		mov	r0, #2000
  54 0024 FFF7FEFF 		bl	osDelay
  55              	.LVL2:
 107:Application/Src/IMU_Task.c **** 
 108:Application/Src/IMU_Task.c ****     /* ---- 配置Mahony滤波器采样频率 ---- */
 109:Application/Src/IMU_Task.c ****     MahonyAHRS.invSampleFreq = 1 / 1000.0f;    /* 1kHz = 1ms 采样周期 */
  56              		.loc 1 109 5 view .LVU4
  57              		.loc 1 109 30 is_stmt 0 view .LVU5
  58 0028 0C4B     		ldr	r3, .L5+20
  59 002a 0D4A     		ldr	r2, .L5+24
  60 002c 1A62     		str	r2, [r3, #32]	@ float
 110:Application/Src/IMU_Task.c ****     /* ---- BMI088在线检测 ---- */
 111:Application/Src/IMU_Task.c ****     while (BMI088_init())
  61              		.loc 1 111 5 is_stmt 1 view .LVU6
ARM GAS  C:\Users\11464\AppData\Local\Temp\ccilCbG6.s 			page 4


  62              		.loc 1 111 11 is_stmt 0 view .LVU7
  63 002e 06E0     		b	.L2
  64              	.L3:
 112:Application/Src/IMU_Task.c ****     {
 113:Application/Src/IMU_Task.c ****         is_err = 1;                             /* 置位离线标志 */
  65              		.loc 1 113 9 is_stmt 1 view .LVU8
  66              		.loc 1 113 16 is_stmt 0 view .LVU9
  67 0030 0C4B     		ldr	r3, .L5+28
  68 0032 0122     		movs	r2, #1
  69 0034 1A60     		str	r2, [r3]
 114:Application/Src/IMU_Task.c ****         osDelay(1000);                          /* 每隔1秒重试   */
  70              		.loc 1 114 9 is_stmt 1 view .LVU10
  71 0036 4FF47A70 		mov	r0, #1000
  72 003a FFF7FEFF 		bl	osDelay
  73              	.LVL3:
  74              	.L2:
 111:Application/Src/IMU_Task.c ****     {
  75              		.loc 1 111 12 view .LVU11
  76 003e FFF7FEFF 		bl	BMI088_init
  77              	.LVL4:
 111:Application/Src/IMU_Task.c ****     {
  78              		.loc 1 111 12 is_stmt 0 discriminator 1 view .LVU12
  79 0042 0028     		cmp	r0, #0
  80 0044 F4D1     		bne	.L3
 115:Application/Src/IMU_Task.c ****     }
 116:Application/Src/IMU_Task.c **** }
  81              		.loc 1 116 1 view .LVU13
  82 0046 08BD     		pop	{r3, pc}
  83              	.L6:
  84              		.align	2
  85              	.L5:
  86 0048 00000000 		.word	max_iout1
  87 004c 00000000 		.word	max_out1
  88 0050 00000000 		.word	pid_temp_args
  89 0054 00000000 		.word	pid_temp
  90 0058 00000000 		.word	htim3
  91 005c 00000000 		.word	MahonyAHRS
  92 0060 6F12833A 		.word	981668463
  93 0064 00000000 		.word	is_err
  94              		.cfi_endproc
  95              	.LFE149:
  97              		.section	.text.IMU_temp_Ctrl,"ax",%progbits
  98              		.align	1
  99              		.global	IMU_temp_Ctrl
 100              		.syntax unified
 101              		.thumb
 102              		.thumb_func
 104              	IMU_temp_Ctrl:
 105              	.LFB150:
 117:Application/Src/IMU_Task.c **** 
 118:Application/Src/IMU_Task.c **** /**
 119:Application/Src/IMU_Task.c ****  *******************************************************************************
 120:Application/Src/IMU_Task.c ****  * @brief       IMU_temp_Ctrl - IMU温度PID控制
 121:Application/Src/IMU_Task.c ****  * @param       void
 122:Application/Src/IMU_Task.c ****  * @retval      void
 123:Application/Src/IMU_Task.c ****  * @details     每300ms执行一次：
 124:Application/Src/IMU_Task.c ****  *              1. 通过BMI088读取当前温度
ARM GAS  C:\Users\11464\AppData\Local\Temp\ccilCbG6.s 			page 5


 125:Application/Src/IMU_Task.c ****  *              2. 若温度超过 IMU_TEMP_LIMIT 阈值：
 126:Application/Src/IMU_Task.c ****  *                 - 清除PID积分项，防止积分饱和
 127:Application/Src/IMU_Task.c ****  *                 - 关闭加热PWM输出（CCR4 = 0）
 128:Application/Src/IMU_Task.c ****  *                 - 置位错误标志，跳过本次PID计算
 129:Application/Src/IMU_Task.c ****  *              3. 正常时：执行PID计算，将输出绝对值写入PWM比较寄存器
 130:Application/Src/IMU_Task.c ****  *
 131:Application/Src/IMU_Task.c ****  * @note        BMI088_read 会同时更新 IMU_Data.gyro 和 IMU_Data.accel，
 132:Application/Src/IMU_Task.c ****  *              作为副作用为后续的 Gyro_Init 提供最新的原始传感器数据
 133:Application/Src/IMU_Task.c ****  *******************************************************************************
 134:Application/Src/IMU_Task.c ****  */
 135:Application/Src/IMU_Task.c **** void IMU_temp_Ctrl(void)
 136:Application/Src/IMU_Task.c **** {
 106              		.loc 1 136 1 is_stmt 1 view -0
 107              		.cfi_startproc
 108              		@ args = 0, pretend = 0, frame = 0
 109              		@ frame_needed = 0, uses_anonymous_args = 0
 110 0000 08B5     		push	{r3, lr}
 111              	.LCFI1:
 112              		.cfi_def_cfa_offset 8
 113              		.cfi_offset 3, -8
 114              		.cfi_offset 14, -4
 137:Application/Src/IMU_Task.c ****     static int cnt = 0;                     /* 分频计数器（1ms → 300ms）       */
 115              		.loc 1 137 5 view .LVU15
 138:Application/Src/IMU_Task.c ****     cnt++;
 116              		.loc 1 138 5 view .LVU16
 117              		.loc 1 138 8 is_stmt 0 view .LVU17
 118 0002 234A     		ldr	r2, .L16
 119 0004 1368     		ldr	r3, [r2]
 120 0006 0133     		adds	r3, r3, #1
 121 0008 1360     		str	r3, [r2]
 139:Application/Src/IMU_Task.c ****     if (cnt == 300)                         /* 每300ms执行一次温度控制        */
 122              		.loc 1 139 5 is_stmt 1 view .LVU18
 123              		.loc 1 139 8 is_stmt 0 view .LVU19
 124 000a B3F5967F 		cmp	r3, #300
 125 000e 00D0     		beq	.L14
 126              	.L7:
 140:Application/Src/IMU_Task.c ****     {
 141:Application/Src/IMU_Task.c ****         /* ---- 读取传感器数据（主要获取温度） ---- */
 142:Application/Src/IMU_Task.c ****         BMI088_read(IMU_Data.gyro, IMU_Data.accel, &IMU_Data.temp);
 143:Application/Src/IMU_Task.c **** 
 144:Application/Src/IMU_Task.c ****         /* ---- 过温保护 ---- */
 145:Application/Src/IMU_Task.c ****         if (IMU_Data.temp >= IMU_TEMP_LIMIT)
 146:Application/Src/IMU_Task.c ****         {
 147:Application/Src/IMU_Task.c ****             PID_clear(&pid_temp);           /* 清除PID历史状态（防积分饱和）   */
 148:Application/Src/IMU_Task.c ****             is_temp_err = 1;                /* 置位过温标志                    */
 149:Application/Src/IMU_Task.c ****             htim3.Instance->CCR4 = 0;       /* 关闭加热PWM输出                 */
 150:Application/Src/IMU_Task.c ****             cnt = 0;                        /* 重置分频计数器                  */
 151:Application/Src/IMU_Task.c ****             return;                         /* 跳过本次PID计算                 */
 152:Application/Src/IMU_Task.c ****         }
 153:Application/Src/IMU_Task.c **** 
 154:Application/Src/IMU_Task.c ****         /* ---- 正常温度控制 ---- */
 155:Application/Src/IMU_Task.c ****         PID_calc(&pid_temp, IMU_Data.temp, IMU_TEMP_SET);
 156:Application/Src/IMU_Task.c ****         htim3.Instance->CCR4 = fabs(pid_temp.out);   /* 更新加热PWM占空比      */
 157:Application/Src/IMU_Task.c ****         cnt = 0;                            /* 重置分频计数器                  */
 158:Application/Src/IMU_Task.c ****         Jf_transmit(&IMU_jf,IMU_Data.temp,pid_temp.error[0],pid_temp.Pout,pid_temp.Iout);
 159:Application/Src/IMU_Task.c ****     }
 160:Application/Src/IMU_Task.c **** }
ARM GAS  C:\Users\11464\AppData\Local\Temp\ccilCbG6.s 			page 6


 127              		.loc 1 160 1 view .LVU20
 128 0010 08BD     		pop	{r3, pc}
 129              	.L14:
 142:Application/Src/IMU_Task.c **** 
 130              		.loc 1 142 9 is_stmt 1 view .LVU21
 131 0012 204A     		ldr	r2, .L16+4
 132 0014 A2F10C01 		sub	r1, r2, #12
 133 0018 A1F10C00 		sub	r0, r1, #12
 134 001c FFF7FEFF 		bl	BMI088_read
 135              	.LVL5:
 145:Application/Src/IMU_Task.c ****         {
 136              		.loc 1 145 9 view .LVU22
 145:Application/Src/IMU_Task.c ****         {
 137              		.loc 1 145 21 is_stmt 0 view .LVU23
 138 0020 1D4B     		ldr	r3, .L16+8
 139 0022 93ED060A 		vldr.32	s0, [r3, #24]
 145:Application/Src/IMU_Task.c ****         {
 140              		.loc 1 145 12 view .LVU24
 141 0026 DFED1D7A 		vldr.32	s15, .L16+12
 142 002a B4EEE70A 		vcmpe.f32	s0, s15
 143 002e F1EE10FA 		vmrs	APSR_nzcv, FPSCR
 144 0032 1FDA     		bge	.L15
 155:Application/Src/IMU_Task.c ****         htim3.Instance->CCR4 = fabs(pid_temp.out);   /* 更新加热PWM占空比      */
 145              		.loc 1 155 9 is_stmt 1 view .LVU25
 146 0034 DFED1A0A 		vldr.32	s1, .L16+16
 147 0038 1A48     		ldr	r0, .L16+20
 148 003a FFF7FEFF 		bl	PID_calc
 149              	.LVL6:
 156:Application/Src/IMU_Task.c ****         cnt = 0;                            /* 重置分频计数器                  */
 150              		.loc 1 156 9 view .LVU26
 156:Application/Src/IMU_Task.c ****         cnt = 0;                            /* 重置分频计数器                  */
 151              		.loc 1 156 45 is_stmt 0 view .LVU27
 152 003e 1949     		ldr	r1, .L16+20
 153 0040 D1ED087A 		vldr.32	s15, [r1, #32]
 156:Application/Src/IMU_Task.c ****         cnt = 0;                            /* 重置分频计数器                  */
 154              		.loc 1 156 32 view .LVU28
 155 0044 F0EEE77A 		vabs.f32	s15, s15
 156:Application/Src/IMU_Task.c ****         cnt = 0;                            /* 重置分频计数器                  */
 156              		.loc 1 156 14 view .LVU29
 157 0048 174B     		ldr	r3, .L16+24
 158 004a 1B68     		ldr	r3, [r3]
 156:Application/Src/IMU_Task.c ****         cnt = 0;                            /* 重置分频计数器                  */
 159              		.loc 1 156 30 view .LVU30
 160 004c FCEEE77A 		vcvt.u32.f32	s15, s15
 161 0050 C3ED107A 		vstr.32	s15, [r3, #64]	@ int
 157:Application/Src/IMU_Task.c ****         Jf_transmit(&IMU_jf,IMU_Data.temp,pid_temp.error[0],pid_temp.Pout,pid_temp.Iout);
 162              		.loc 1 157 9 is_stmt 1 view .LVU31
 157:Application/Src/IMU_Task.c ****         Jf_transmit(&IMU_jf,IMU_Data.temp,pid_temp.error[0],pid_temp.Pout,pid_temp.Iout);
 163              		.loc 1 157 13 is_stmt 0 view .LVU32
 164 0054 0E4B     		ldr	r3, .L16
 165 0056 0022     		movs	r2, #0
 166 0058 1A60     		str	r2, [r3]
 158:Application/Src/IMU_Task.c ****     }
 167              		.loc 1 158 9 is_stmt 1 view .LVU33
 168 005a D1ED0A1A 		vldr.32	s3, [r1, #40]
 169 005e 91ED091A 		vldr.32	s2, [r1, #36]
 170 0062 D1ED0F0A 		vldr.32	s1, [r1, #60]
ARM GAS  C:\Users\11464\AppData\Local\Temp\ccilCbG6.s 			page 7


 171 0066 0C4B     		ldr	r3, .L16+8
 172 0068 93ED060A 		vldr.32	s0, [r3, #24]
 173 006c 0F48     		ldr	r0, .L16+28
 174 006e FFF7FEFF 		bl	Jf_transmit
 175              	.LVL7:
 176 0072 CDE7     		b	.L7
 177              	.L15:
 147:Application/Src/IMU_Task.c ****             is_temp_err = 1;                /* 置位过温标志                    */
 178              		.loc 1 147 13 view .LVU34
 179 0074 0B48     		ldr	r0, .L16+20
 180 0076 FFF7FEFF 		bl	PID_clear
 181              	.LVL8:
 148:Application/Src/IMU_Task.c ****             htim3.Instance->CCR4 = 0;       /* 关闭加热PWM输出                 */
 182              		.loc 1 148 13 view .LVU35
 148:Application/Src/IMU_Task.c ****             htim3.Instance->CCR4 = 0;       /* 关闭加热PWM输出                 */
 183              		.loc 1 148 25 is_stmt 0 view .LVU36
 184 007a 0D4B     		ldr	r3, .L16+32
 185 007c 0122     		movs	r2, #1
 186 007e 1A60     		str	r2, [r3]
 149:Application/Src/IMU_Task.c ****             cnt = 0;                        /* 重置分频计数器                  */
 187              		.loc 1 149 13 is_stmt 1 view .LVU37
 149:Application/Src/IMU_Task.c ****             cnt = 0;                        /* 重置分频计数器                  */
 188              		.loc 1 149 18 is_stmt 0 view .LVU38
 189 0080 094B     		ldr	r3, .L16+24
 190 0082 1A68     		ldr	r2, [r3]
 149:Application/Src/IMU_Task.c ****             cnt = 0;                        /* 重置分频计数器                  */
 191              		.loc 1 149 34 view .LVU39
 192 0084 0023     		movs	r3, #0
 193 0086 1364     		str	r3, [r2, #64]
 150:Application/Src/IMU_Task.c ****             return;                         /* 跳过本次PID计算                 */
 194              		.loc 1 150 13 is_stmt 1 view .LVU40
 150:Application/Src/IMU_Task.c ****             return;                         /* 跳过本次PID计算                 */
 195              		.loc 1 150 17 is_stmt 0 view .LVU41
 196 0088 014A     		ldr	r2, .L16
 197 008a 1360     		str	r3, [r2]
 151:Application/Src/IMU_Task.c ****         }
 198              		.loc 1 151 13 is_stmt 1 view .LVU42
 199 008c C0E7     		b	.L7
 200              	.L17:
 201 008e 00BF     		.align	2
 202              	.L16:
 203 0090 00000000 		.word	cnt.1
 204 0094 18000000 		.word	IMU_Data+24
 205 0098 00000000 		.word	IMU_Data
 206 009c 00007042 		.word	1114636288
 207 00a0 00002042 		.word	1109393408
 208 00a4 00000000 		.word	pid_temp
 209 00a8 00000000 		.word	htim3
 210 00ac 00000000 		.word	IMU_jf
 211 00b0 00000000 		.word	is_temp_err
 212              		.cfi_endproc
 213              	.LFE150:
 215              		.section	.text.IMU_Data_Read,"ax",%progbits
 216              		.align	1
 217              		.global	IMU_Data_Read
 218              		.syntax unified
 219              		.thumb
ARM GAS  C:\Users\11464\AppData\Local\Temp\ccilCbG6.s 			page 8


 220              		.thumb_func
 222              	IMU_Data_Read:
 223              	.LFB151:
 161:Application/Src/IMU_Task.c **** 
 162:Application/Src/IMU_Task.c **** /**
 163:Application/Src/IMU_Task.c ****  *******************************************************************************
 164:Application/Src/IMU_Task.c ****  * @brief       IMU_Data_Read - 读取IMU数据并解算姿态角
 165:Application/Src/IMU_Task.c ****  * @param       void
 166:Application/Src/IMU_Task.c ****  * @retval      void
 167:Application/Src/IMU_Task.c ****  * @details     每个采样周期（1kHz）执行：
 168:Application/Src/IMU_Task.c ****  *              1. 读取BMI088加速度计和陀螺仪原始数据
 169:Application/Src/IMU_Task.c ****  *              2. 首次调用时使用当前加速度计数据初始化Mahony滤波器
 170:Application/Src/IMU_Task.c ****  *              3. 减去陀螺仪零偏值（gyro_init[]），并对Z轴做死区滤波
 171:Application/Src/IMU_Task.c ****  *              4. 执行Mahony互补滤波更新（融合陀螺仪+加速度计）
 172:Application/Src/IMU_Task.c ****  *              5. 计算欧拉角（roll/pitch/yaw）
 173:Application/Src/IMU_Task.c ****  *              6. 仅在零偏校准完成后输出姿态角到 IMU_Data
 174:Application/Src/IMU_Task.c ****  *
 175:Application/Src/IMU_Task.c ****  * @note        Z轴死区阈值 0.012 rad/s ≈ 0.69°/s，用于抑制静态噪声
 176:Application/Src/IMU_Task.c ****  * @note        yaw 加 180° 将范围从 [-180°, 180°] 映射到 [0°, 360°]
 177:Application/Src/IMU_Task.c ****  *******************************************************************************
 178:Application/Src/IMU_Task.c ****  */
 179:Application/Src/IMU_Task.c **** void IMU_Data_Read(void)
 180:Application/Src/IMU_Task.c **** {
 224              		.loc 1 180 1 view -0
 225              		.cfi_startproc
 226              		@ args = 0, pretend = 0, frame = 0
 227              		@ frame_needed = 0, uses_anonymous_args = 0
 228 0000 38B5     		push	{r3, r4, r5, lr}
 229              	.LCFI2:
 230              		.cfi_def_cfa_offset 16
 231              		.cfi_offset 3, -16
 232              		.cfi_offset 4, -12
 233              		.cfi_offset 5, -8
 234              		.cfi_offset 14, -4
 181:Application/Src/IMU_Task.c ****     /* ---- 读取BMI088原始数据 ---- */
 182:Application/Src/IMU_Task.c ****     BMI088_read(IMU_Data.gyro, IMU_Data.accel, &IMU_Data.temp);
 235              		.loc 1 182 5 view .LVU44
 236 0002 394C     		ldr	r4, .L27
 237 0004 A4F11805 		sub	r5, r4, #24
 238 0008 2246     		mov	r2, r4
 239 000a A4F10C01 		sub	r1, r4, #12
 240 000e 2846     		mov	r0, r5
 241 0010 FFF7FEFF 		bl	BMI088_read
 242              	.LVL9:
 183:Application/Src/IMU_Task.c ****     gyro_raw[0] = IMU_Data.gyro[0];
 243              		.loc 1 183 5 view .LVU45
 244              		.loc 1 183 32 is_stmt 0 view .LVU46
 245 0014 54F8182C 		ldr	r2, [r4, #-24]	@ float
 246              		.loc 1 183 17 view .LVU47
 247 0018 344B     		ldr	r3, .L27+4
 248 001a 1A60     		str	r2, [r3]	@ float
 184:Application/Src/IMU_Task.c ****     gyro_raw[1] = IMU_Data.gyro[1];
 249              		.loc 1 184 5 is_stmt 1 view .LVU48
 250              		.loc 1 184 32 is_stmt 0 view .LVU49
 251 001c 54F8142C 		ldr	r2, [r4, #-20]	@ float
 252              		.loc 1 184 17 view .LVU50
 253 0020 5A60     		str	r2, [r3, #4]	@ float
ARM GAS  C:\Users\11464\AppData\Local\Temp\ccilCbG6.s 			page 9


 185:Application/Src/IMU_Task.c ****     gyro_raw[2] = IMU_Data.gyro[2];
 254              		.loc 1 185 5 is_stmt 1 view .LVU51
 255              		.loc 1 185 32 is_stmt 0 view .LVU52
 256 0022 54F8102C 		ldr	r2, [r4, #-16]	@ float
 257              		.loc 1 185 17 view .LVU53
 258 0026 9A60     		str	r2, [r3, #8]	@ float
 186:Application/Src/IMU_Task.c ****     /* ---- 首次调用时初始化Mahony姿态解算 ---- */
 187:Application/Src/IMU_Task.c ****     if (MahonyAHRS.is_Init == 0)
 259              		.loc 1 187 5 is_stmt 1 view .LVU54
 260              		.loc 1 187 19 is_stmt 0 view .LVU55
 261 0028 314B     		ldr	r3, .L27+8
 262 002a 93F93030 		ldrsb	r3, [r3, #48]
 263              		.loc 1 187 8 view .LVU56
 264 002e 002B     		cmp	r3, #0
 265 0030 39D0     		beq	.L25
 266              	.L19:
 188:Application/Src/IMU_Task.c ****     {
 189:Application/Src/IMU_Task.c ****         MahonyAHRS.is_Init = 1;
 190:Application/Src/IMU_Task.c ****         MahonyAHRS_init(IMU_Data.accel[0], IMU_Data.accel[1], IMU_Data.accel[2],
 191:Application/Src/IMU_Task.c ****                         0, 0, 0, &MahonyAHRS);
 192:Application/Src/IMU_Task.c ****     }
 193:Application/Src/IMU_Task.c **** 
 194:Application/Src/IMU_Task.c ****     /* ---- 应用陀螺仪零偏修正 ---- */
 195:Application/Src/IMU_Task.c ****     IMU_Data.gyro[0] -= gyro_init[0];
 267              		.loc 1 195 5 is_stmt 1 view .LVU57
 268              		.loc 1 195 18 is_stmt 0 view .LVU58
 269 0032 304B     		ldr	r3, .L27+12
 270 0034 93ED000A 		vldr.32	s0, [r3]
 271              		.loc 1 195 34 view .LVU59
 272 0038 2F4A     		ldr	r2, .L27+16
 273 003a D2ED007A 		vldr.32	s15, [r2]
 274              		.loc 1 195 22 view .LVU60
 275 003e 30EE670A 		vsub.f32	s0, s0, s15
 276 0042 83ED000A 		vstr.32	s0, [r3]
 196:Application/Src/IMU_Task.c ****     IMU_Data.gyro[1] -= gyro_init[1];
 277              		.loc 1 196 5 is_stmt 1 view .LVU61
 278              		.loc 1 196 18 is_stmt 0 view .LVU62
 279 0046 D3ED010A 		vldr.32	s1, [r3, #4]
 280              		.loc 1 196 34 view .LVU63
 281 004a D2ED017A 		vldr.32	s15, [r2, #4]
 282              		.loc 1 196 22 view .LVU64
 283 004e 70EEE70A 		vsub.f32	s1, s1, s15
 284 0052 C3ED010A 		vstr.32	s1, [r3, #4]
 197:Application/Src/IMU_Task.c ****     IMU_Data.gyro[2] -= gyro_init[2];
 285              		.loc 1 197 5 is_stmt 1 view .LVU65
 286              		.loc 1 197 18 is_stmt 0 view .LVU66
 287 0056 D3ED027A 		vldr.32	s15, [r3, #8]
 288              		.loc 1 197 34 view .LVU67
 289 005a 92ED027A 		vldr.32	s14, [r2, #8]
 290              		.loc 1 197 22 view .LVU68
 291 005e 77EEC77A 		vsub.f32	s15, s15, s14
 292 0062 C3ED027A 		vstr.32	s15, [r3, #8]
 198:Application/Src/IMU_Task.c **** 
 199:Application/Src/IMU_Task.c ****     /* ---- Z轴死区滤波：滤除微小角速度噪声 ---- */
 200:Application/Src/IMU_Task.c ****     if (fabsf(IMU_Data.gyro[2]) < 0.012f)
 293              		.loc 1 200 5 is_stmt 1 view .LVU69
 294              		.loc 1 200 9 is_stmt 0 view .LVU70
ARM GAS  C:\Users\11464\AppData\Local\Temp\ccilCbG6.s 			page 10


 295 0066 F0EEE77A 		vabs.f32	s15, s15
 296              		.loc 1 200 8 view .LVU71
 297 006a 9FED247A 		vldr.32	s14, .L27+20
 298 006e F4EEC77A 		vcmpe.f32	s15, s14
 299 0072 F1EE10FA 		vmrs	APSR_nzcv, FPSCR
 300 0076 01D5     		bpl	.L20
 201:Application/Src/IMU_Task.c ****     {
 202:Application/Src/IMU_Task.c ****         IMU_Data.gyro[2] = 0;
 301              		.loc 1 202 9 is_stmt 1 view .LVU72
 302              		.loc 1 202 26 is_stmt 0 view .LVU73
 303 0078 0022     		movs	r2, #0
 304 007a 9A60     		str	r2, [r3, #8]	@ float
 305              	.L20:
 203:Application/Src/IMU_Task.c ****     }
 204:Application/Src/IMU_Task.c **** 
 205:Application/Src/IMU_Task.c ****     /* ---- Mahony互补滤波：融合陀螺仪和加速度计数据 ---- */
 206:Application/Src/IMU_Task.c ****     MahonyAHRS_update(IMU_Data.gyro[0], IMU_Data.gyro[1], IMU_Data.gyro[2],
 306              		.loc 1 206 5 is_stmt 1 view .LVU74
 307 007c 1C4C     		ldr	r4, .L27+8
 308 007e 1D4B     		ldr	r3, .L27+12
 309 0080 2046     		mov	r0, r4
 310 0082 D3ED052A 		vldr.32	s5, [r3, #20]
 311 0086 93ED042A 		vldr.32	s4, [r3, #16]
 312 008a D3ED031A 		vldr.32	s3, [r3, #12]
 313 008e 93ED021A 		vldr.32	s2, [r3, #8]
 314 0092 FFF7FEFF 		bl	MahonyAHRS_update
 315              	.LVL10:
 207:Application/Src/IMU_Task.c ****                       IMU_Data.accel[0], IMU_Data.accel[1], IMU_Data.accel[2],
 208:Application/Src/IMU_Task.c ****                       &MahonyAHRS);
 209:Application/Src/IMU_Task.c **** 
 210:Application/Src/IMU_Task.c ****     /* ---- 计算欧拉角 ---- */
 211:Application/Src/IMU_Task.c ****     Mahony_computeAngles(&MahonyAHRS);
 316              		.loc 1 211 5 view .LVU75
 317 0096 2046     		mov	r0, r4
 318 0098 FFF7FEFF 		bl	Mahony_computeAngles
 319              	.LVL11:
 212:Application/Src/IMU_Task.c **** 
 213:Application/Src/IMU_Task.c ****     /* ---- 仅在校准完成后更新姿态角输出 ---- */
 214:Application/Src/IMU_Task.c ****     if (Init_Status == Gyro_Read_Flag)
 320              		.loc 1 214 5 view .LVU76
 321              		.loc 1 214 21 is_stmt 0 view .LVU77
 322 009c 184B     		ldr	r3, .L27+24
 323 009e 1B78     		ldrb	r3, [r3]	@ zero_extendqisi2
 324              		.loc 1 214 8 view .LVU78
 325 00a0 012B     		cmp	r3, #1
 326 00a2 13D0     		beq	.L26
 327              	.L18:
 215:Application/Src/IMU_Task.c ****     {
 216:Application/Src/IMU_Task.c ****         IMU_Data.roll  = MahonyAHRS.roll_Mahony;
 217:Application/Src/IMU_Task.c ****         IMU_Data.pitch = MahonyAHRS.pitch_Mahony;
 218:Application/Src/IMU_Task.c ****         IMU_Data.yaw   = MahonyAHRS.yaw_Mahony + 180.0f;  /* 映射到 [0,360] */
 219:Application/Src/IMU_Task.c ****     }
 220:Application/Src/IMU_Task.c **** }
 328              		.loc 1 220 1 view .LVU79
 329 00a4 38BD     		pop	{r3, r4, r5, pc}
 330              	.L25:
 189:Application/Src/IMU_Task.c ****         MahonyAHRS_init(IMU_Data.accel[0], IMU_Data.accel[1], IMU_Data.accel[2],
ARM GAS  C:\Users\11464\AppData\Local\Temp\ccilCbG6.s 			page 11


 331              		.loc 1 189 9 is_stmt 1 view .LVU80
 189:Application/Src/IMU_Task.c ****         MahonyAHRS_init(IMU_Data.accel[0], IMU_Data.accel[1], IMU_Data.accel[2],
 332              		.loc 1 189 28 is_stmt 0 view .LVU81
 333 00a6 1248     		ldr	r0, .L27+8
 334 00a8 0123     		movs	r3, #1
 335 00aa 80F83030 		strb	r3, [r0, #48]
 190:Application/Src/IMU_Task.c ****                         0, 0, 0, &MahonyAHRS);
 336              		.loc 1 190 9 is_stmt 1 view .LVU82
 337 00ae DFED151A 		vldr.32	s3, .L27+28
 338 00b2 F0EE612A 		vmov.f32	s5, s3
 339 00b6 B0EE612A 		vmov.f32	s4, s3
 340 00ba 95ED051A 		vldr.32	s2, [r5, #20]
 341 00be D5ED040A 		vldr.32	s1, [r5, #16]
 342 00c2 95ED030A 		vldr.32	s0, [r5, #12]
 343 00c6 FFF7FEFF 		bl	MahonyAHRS_init
 344              	.LVL12:
 345 00ca B2E7     		b	.L19
 346              	.L26:
 216:Application/Src/IMU_Task.c ****         IMU_Data.pitch = MahonyAHRS.pitch_Mahony;
 347              		.loc 1 216 9 view .LVU83
 216:Application/Src/IMU_Task.c ****         IMU_Data.pitch = MahonyAHRS.pitch_Mahony;
 348              		.loc 1 216 36 is_stmt 0 view .LVU84
 349 00cc 616A     		ldr	r1, [r4, #36]	@ float
 216:Application/Src/IMU_Task.c ****         IMU_Data.pitch = MahonyAHRS.pitch_Mahony;
 350              		.loc 1 216 24 view .LVU85
 351 00ce 094B     		ldr	r3, .L27+12
 352 00d0 D961     		str	r1, [r3, #28]	@ float
 217:Application/Src/IMU_Task.c ****         IMU_Data.yaw   = MahonyAHRS.yaw_Mahony + 180.0f;  /* 映射到 [0,360] */
 353              		.loc 1 217 9 is_stmt 1 view .LVU86
 217:Application/Src/IMU_Task.c ****         IMU_Data.yaw   = MahonyAHRS.yaw_Mahony + 180.0f;  /* 映射到 [0,360] */
 354              		.loc 1 217 36 is_stmt 0 view .LVU87
 355 00d2 A16A     		ldr	r1, [r4, #40]	@ float
 217:Application/Src/IMU_Task.c ****         IMU_Data.yaw   = MahonyAHRS.yaw_Mahony + 180.0f;  /* 映射到 [0,360] */
 356              		.loc 1 217 24 view .LVU88
 357 00d4 1962     		str	r1, [r3, #32]	@ float
 218:Application/Src/IMU_Task.c ****     }
 358              		.loc 1 218 9 is_stmt 1 view .LVU89
 218:Application/Src/IMU_Task.c ****     }
 359              		.loc 1 218 36 is_stmt 0 view .LVU90
 360 00d6 D4ED0B7A 		vldr.32	s15, [r4, #44]
 218:Application/Src/IMU_Task.c ****     }
 361              		.loc 1 218 48 view .LVU91
 362 00da 9FED0B7A 		vldr.32	s14, .L27+32
 363 00de 77EE877A 		vadd.f32	s15, s15, s14
 218:Application/Src/IMU_Task.c ****     }
 364              		.loc 1 218 24 view .LVU92
 365 00e2 C3ED097A 		vstr.32	s15, [r3, #36]
 366              		.loc 1 220 1 view .LVU93
 367 00e6 DDE7     		b	.L18
 368              	.L28:
 369              		.align	2
 370              	.L27:
 371 00e8 18000000 		.word	IMU_Data+24
 372 00ec 00000000 		.word	gyro_raw
 373 00f0 00000000 		.word	MahonyAHRS
 374 00f4 00000000 		.word	IMU_Data
 375 00f8 00000000 		.word	gyro_init
ARM GAS  C:\Users\11464\AppData\Local\Temp\ccilCbG6.s 			page 12


 376 00fc A69B443C 		.word	1011129254
 377 0100 00000000 		.word	Init_Status
 378 0104 00000000 		.word	0
 379 0108 00003443 		.word	1127481344
 380              		.cfi_endproc
 381              	.LFE151:
 383              		.section	.text.Gyro_Init,"ax",%progbits
 384              		.align	1
 385              		.global	Gyro_Init
 386              		.syntax unified
 387              		.thumb
 388              		.thumb_func
 390              	Gyro_Init:
 391              	.LVL13:
 392              	.LFB152:
 221:Application/Src/IMU_Task.c **** 
 222:Application/Src/IMU_Task.c **** /**
 223:Application/Src/IMU_Task.c ****  *******************************************************************************
 224:Application/Src/IMU_Task.c ****  * @brief       Gyro_Init - 陀螺仪上电零偏校准状态机
 225:Application/Src/IMU_Task.c ****  * @param       status  校准状态指针
 226:Application/Src/IMU_Task.c ****  *                      - 输入/输出：Gyro_Init_Flag → Gyro_Read_Flag
 227:Application/Src/IMU_Task.c ****  * @retval      void
 228:Application/Src/IMU_Task.c ****  * @details     两阶段状态机：
 229:Application/Src/IMU_Task.c ****  *
 230:Application/Src/IMU_Task.c ****  *              【校准阶段】status == Gyro_Init_Flag
 231:Application/Src/IMU_Task.c ****  *              - 累加 correct_Time_define 次陀螺仪原始数据到 gyro_init[]
 232:Application/Src/IMU_Task.c ****  *              - 累加满后除以采样次数，得到零偏平均值
 233:Application/Src/IMU_Task.c ****  *              - 将 *status 切换为 Gyro_Read_Flag，校准完成
 234:Application/Src/IMU_Task.c ****  *
 235:Application/Src/IMU_Task.c ****  *              【运行阶段】status == Gyro_Read_Flag
 236:Application/Src/IMU_Task.c ****  *              - 此函数不再执行任何操作
 237:Application/Src/IMU_Task.c ****  *              - 零偏修正已移至 IMU_Data_Read() 内部执行（Mahony更新前）
 238:Application/Src/IMU_Task.c ****  *
 239:Application/Src/IMU_Task.c ****  * @note        校准期间姿态角不更新（IMU_Data.roll/pitch/yaw 保持为0）
 240:Application/Src/IMU_Task.c ****  * @note        零偏修正不在此函数内进行，而是在 IMU_Data_Read 中减去 gyro_init[
 241:Application/Src/IMU_Task.c ****  *******************************************************************************
 242:Application/Src/IMU_Task.c ****  */
 243:Application/Src/IMU_Task.c **** void Gyro_Init(uint8_t *status)
 244:Application/Src/IMU_Task.c **** {
 393              		.loc 1 244 1 is_stmt 1 view -0
 394              		.cfi_startproc
 395              		@ args = 0, pretend = 0, frame = 0
 396              		@ frame_needed = 0, uses_anonymous_args = 0
 397              		@ link register save eliminated.
 245:Application/Src/IMU_Task.c ****     static int cnt = 0;                 /* 校准采样计数器                  */
 398              		.loc 1 245 5 view .LVU95
 246:Application/Src/IMU_Task.c **** 
 247:Application/Src/IMU_Task.c ****     if (*status == Gyro_Init_Flag)
 399              		.loc 1 247 5 view .LVU96
 400              		.loc 1 247 9 is_stmt 0 view .LVU97
 401 0000 0378     		ldrb	r3, [r0]	@ zero_extendqisi2
 402              		.loc 1 247 8 view .LVU98
 403 0002 8BBB     		cbnz	r3, .L29
 248:Application/Src/IMU_Task.c ****     {
 249:Application/Src/IMU_Task.c ****         /* ---- 校准阶段：累加原始陀螺仪数据 ---- */
 250:Application/Src/IMU_Task.c ****         gyro_sum[0] += gyro_raw[0];
 404              		.loc 1 250 9 is_stmt 1 view .LVU99
ARM GAS  C:\Users\11464\AppData\Local\Temp\ccilCbG6.s 			page 13


 405              		.loc 1 250 17 is_stmt 0 view .LVU100
 406 0004 194B     		ldr	r3, .L31
 407 0006 D3ED006A 		vldr.32	s13, [r3]
 408              		.loc 1 250 32 view .LVU101
 409 000a 194A     		ldr	r2, .L31+4
 410 000c D2ED007A 		vldr.32	s15, [r2]
 411              		.loc 1 250 21 view .LVU102
 412 0010 76EEA76A 		vadd.f32	s13, s13, s15
 413 0014 C3ED006A 		vstr.32	s13, [r3]
 251:Application/Src/IMU_Task.c ****         gyro_sum[1] += gyro_raw[1];
 414              		.loc 1 251 9 is_stmt 1 view .LVU103
 415              		.loc 1 251 17 is_stmt 0 view .LVU104
 416 0018 93ED017A 		vldr.32	s14, [r3, #4]
 417              		.loc 1 251 32 view .LVU105
 418 001c D2ED017A 		vldr.32	s15, [r2, #4]
 419              		.loc 1 251 21 view .LVU106
 420 0020 37EE277A 		vadd.f32	s14, s14, s15
 421 0024 83ED017A 		vstr.32	s14, [r3, #4]
 252:Application/Src/IMU_Task.c ****         gyro_sum[2] += gyro_raw[2];
 422              		.loc 1 252 9 is_stmt 1 view .LVU107
 423              		.loc 1 252 17 is_stmt 0 view .LVU108
 424 0028 D3ED027A 		vldr.32	s15, [r3, #8]
 425              		.loc 1 252 32 view .LVU109
 426 002c 92ED026A 		vldr.32	s12, [r2, #8]
 427              		.loc 1 252 21 view .LVU110
 428 0030 77EE867A 		vadd.f32	s15, s15, s12
 429 0034 C3ED027A 		vstr.32	s15, [r3, #8]
 253:Application/Src/IMU_Task.c ****         cnt++;
 430              		.loc 1 253 9 is_stmt 1 view .LVU111
 431              		.loc 1 253 12 is_stmt 0 view .LVU112
 432 0038 0E4A     		ldr	r2, .L31+8
 433 003a 1368     		ldr	r3, [r2]
 434 003c 0133     		adds	r3, r3, #1
 435 003e 1360     		str	r3, [r2]
 254:Application/Src/IMU_Task.c **** 
 255:Application/Src/IMU_Task.c ****         /* ---- 达到指定采样次数后计算零偏均值 ---- */
 256:Application/Src/IMU_Task.c ****         if (cnt >= correct_Time_define)
 436              		.loc 1 256 9 is_stmt 1 view .LVU113
 437              		.loc 1 256 12 is_stmt 0 view .LVU114
 438 0040 B3F57A7F 		cmp	r3, #1000
 439 0044 10DB     		blt	.L29
 257:Application/Src/IMU_Task.c ****         {
 258:Application/Src/IMU_Task.c ****             gyro_init[0] = gyro_sum[0] / correct_Time_define;    /* X轴零偏均值              *
 440              		.loc 1 258 13 is_stmt 1 view .LVU115
 441              		.loc 1 258 40 is_stmt 0 view .LVU116
 442 0046 9FED0C6A 		vldr.32	s12, .L31+12
 443 004a C6EE865A 		vdiv.f32	s11, s13, s12
 444              		.loc 1 258 26 view .LVU117
 445 004e 0B4B     		ldr	r3, .L31+16
 446 0050 C3ED005A 		vstr.32	s11, [r3]
 259:Application/Src/IMU_Task.c ****             gyro_init[1] = gyro_sum[1] / correct_Time_define;    /* Y轴零偏均值              *
 447              		.loc 1 259 13 is_stmt 1 view .LVU118
 448              		.loc 1 259 40 is_stmt 0 view .LVU119
 449 0054 C7EE066A 		vdiv.f32	s13, s14, s12
 450              		.loc 1 259 26 view .LVU120
 451 0058 C3ED016A 		vstr.32	s13, [r3, #4]
 260:Application/Src/IMU_Task.c ****             gyro_init[2] = gyro_sum[2] / correct_Time_define;    /* Z轴零偏均值              *
ARM GAS  C:\Users\11464\AppData\Local\Temp\ccilCbG6.s 			page 14


 452              		.loc 1 260 13 is_stmt 1 view .LVU121
 453              		.loc 1 260 40 is_stmt 0 view .LVU122
 454 005c 87EE867A 		vdiv.f32	s14, s15, s12
 455              		.loc 1 260 26 view .LVU123
 456 0060 83ED027A 		vstr.32	s14, [r3, #8]
 261:Application/Src/IMU_Task.c ****             *status = Gyro_Read_Flag;               /* 切换至运行状态            */
 457              		.loc 1 261 13 is_stmt 1 view .LVU124
 458              		.loc 1 261 21 is_stmt 0 view .LVU125
 459 0064 0123     		movs	r3, #1
 460 0066 0370     		strb	r3, [r0]
 461              	.L29:
 262:Application/Src/IMU_Task.c ****         }
 263:Application/Src/IMU_Task.c ****     }
 264:Application/Src/IMU_Task.c ****     /* 运行阶段：零偏修正由 IMU_Data_Read() 负责，此处无操作 */
 265:Application/Src/IMU_Task.c **** }
 462              		.loc 1 265 1 view .LVU126
 463 0068 7047     		bx	lr
 464              	.L32:
 465 006a 00BF     		.align	2
 466              	.L31:
 467 006c 00000000 		.word	gyro_sum
 468 0070 00000000 		.word	gyro_raw
 469 0074 00000000 		.word	cnt.0
 470 0078 00007A44 		.word	1148846080
 471 007c 00000000 		.word	gyro_init
 472              		.cfi_endproc
 473              	.LFE152:
 475              		.section	.text.IMU_Task,"ax",%progbits
 476              		.align	1
 477              		.global	IMU_Task
 478              		.syntax unified
 479              		.thumb
 480              		.thumb_func
 482              	IMU_Task:
 483              	.LVL14:
 484              	.LFB148:
  73:Application/Src/IMU_Task.c ****     IMU_Init();                             /* 传感器及外设初始化              */
 485              		.loc 1 73 1 is_stmt 1 view -0
 486              		.cfi_startproc
 487              		@ Volatile: function does not return.
 488              		@ args = 0, pretend = 0, frame = 0
 489              		@ frame_needed = 0, uses_anonymous_args = 0
  73:Application/Src/IMU_Task.c ****     IMU_Init();                             /* 传感器及外设初始化              */
 490              		.loc 1 73 1 is_stmt 0 view .LVU128
 491 0000 08B5     		push	{r3, lr}
 492              	.LCFI3:
 493              		.cfi_def_cfa_offset 8
 494              		.cfi_offset 3, -8
 495              		.cfi_offset 14, -4
  74:Application/Src/IMU_Task.c ****     while (1)
 496              		.loc 1 74 5 is_stmt 1 view .LVU129
 497 0002 FFF7FEFF 		bl	IMU_Init
 498              	.LVL15:
 499              	.L34:
  75:Application/Src/IMU_Task.c ****     {
 500              		.loc 1 75 5 view .LVU130
  77:Application/Src/IMU_Task.c ****         IMU_temp_Ctrl();                    /* 温度PID控制（内部300ms分频）    */
ARM GAS  C:\Users\11464\AppData\Local\Temp\ccilCbG6.s 			page 15


 501              		.loc 1 77 9 view .LVU131
 502 0006 0120     		movs	r0, #1
 503 0008 FFF7FEFF 		bl	osDelay
 504              	.LVL16:
  78:Application/Src/IMU_Task.c ****         IMU_Data_Read();                    /* 读取传感器 + Mahony姿态解算    */
 505              		.loc 1 78 9 view .LVU132
 506 000c FFF7FEFF 		bl	IMU_temp_Ctrl
 507              	.LVL17:
  79:Application/Src/IMU_Task.c ****         Gyro_Init(&Init_Status);            /* 陀螺仪零偏校准状态机           */
 508              		.loc 1 79 9 view .LVU133
 509 0010 FFF7FEFF 		bl	IMU_Data_Read
 510              	.LVL18:
  80:Application/Src/IMU_Task.c ****     }
 511              		.loc 1 80 9 discriminator 2 view .LVU134
 512 0014 0148     		ldr	r0, .L36
 513 0016 FFF7FEFF 		bl	Gyro_Init
 514              	.LVL19:
  75:Application/Src/IMU_Task.c ****     {
 515              		.loc 1 75 11 view .LVU135
 516 001a F4E7     		b	.L34
 517              	.L37:
 518              		.align	2
 519              	.L36:
 520 001c 00000000 		.word	Init_Status
 521              		.cfi_endproc
 522              	.LFE148:
 524              		.section	.bss.cnt.0,"aw",%nobits
 525              		.align	2
 528              	cnt.0:
 529 0000 00000000 		.space	4
 530              		.section	.bss.cnt.1,"aw",%nobits
 531              		.align	2
 534              	cnt.1:
 535 0000 00000000 		.space	4
 536              		.global	Init_Status
 537              		.section	.bss.Init_Status,"aw",%nobits
 540              	Init_Status:
 541 0000 00       		.space	1
 542              		.global	max_iout1
 543              		.section	.data.max_iout1,"aw"
 544              		.align	2
 547              	max_iout1:
 548 0000 00E0AB45 		.word	1168891904
 549              		.global	max_out1
 550              		.section	.data.max_out1,"aw"
 551              		.align	2
 554              	max_out1:
 555 0000 0000FA45 		.word	1174011904
 556              		.global	is_err
 557              		.section	.bss.is_err,"aw",%nobits
 558              		.align	2
 561              	is_err:
 562 0000 00000000 		.space	4
 563              		.global	is_temp_err
 564              		.section	.bss.is_temp_err,"aw",%nobits
 565              		.align	2
 568              	is_temp_err:
ARM GAS  C:\Users\11464\AppData\Local\Temp\ccilCbG6.s 			page 16


 569 0000 00000000 		.space	4
 570              		.global	gyro_sum
 571              		.section	.bss.gyro_sum,"aw",%nobits
 572              		.align	2
 575              	gyro_sum:
 576 0000 00000000 		.space	12
 576      00000000 
 576      00000000 
 577              		.global	gyro_raw
 578              		.section	.bss.gyro_raw,"aw",%nobits
 579              		.align	2
 582              	gyro_raw:
 583 0000 00000000 		.space	12
 583      00000000 
 583      00000000 
 584              		.global	pid_temp_args
 585              		.section	.data.pid_temp_args,"aw"
 586              		.align	2
 589              	pid_temp_args:
 590 0000 0000C843 		.word	1137180672
 591 0004 00004842 		.word	1112014848
 592 0008 00004041 		.word	1094713344
 593              		.global	IMU_jf
 594              		.section	.bss.IMU_jf,"aw",%nobits
 595              		.align	2
 598              	IMU_jf:
 599 0000 00000000 		.space	20
 599      00000000 
 599      00000000 
 599      00000000 
 599      00000000 
 600              		.global	pid_temp
 601              		.section	.bss.pid_temp,"aw",%nobits
 602              		.align	2
 605              	pid_temp:
 606 0000 00000000 		.space	72
 606      00000000 
 606      00000000 
 606      00000000 
 606      00000000 
 607              		.global	gyro_init
 608              		.section	.bss.gyro_init,"aw",%nobits
 609              		.align	2
 612              	gyro_init:
 613 0000 00000000 		.space	12
 613      00000000 
 613      00000000 
 614              		.global	IMU_Data
 615              		.section	.bss.IMU_Data,"aw",%nobits
 616              		.align	2
 619              	IMU_Data:
 620 0000 00000000 		.space	44
 620      00000000 
 620      00000000 
 620      00000000 
 620      00000000 
 621              		.global	MahonyAHRS
ARM GAS  C:\Users\11464\AppData\Local\Temp\ccilCbG6.s 			page 17


 622              		.section	.bss.MahonyAHRS,"aw",%nobits
 623              		.align	2
 626              	MahonyAHRS:
 627 0000 00000000 		.space	52
 627      00000000 
 627      00000000 
 627      00000000 
 627      00000000 
 628              		.text
 629              	.Letext0:
 630              		.file 2 "D:/ec_env/arm-gnu-toolchain/arm-none-eabi/include/machine/_default_types.h"
 631              		.file 3 "D:/ec_env/arm-gnu-toolchain/arm-none-eabi/include/sys/_stdint.h"
 632              		.file 4 "Middlewares/Third_Party/FreeRTOS/Source/CMSIS_RTOS_V2/cmsis_os2.h"
 633              		.file 5 "Drivers/CMSIS/Device/ST/STM32H7xx/Include/stm32h723xx.h"
 634              		.file 6 "Drivers/STM32H7xx_HAL_Driver/Inc/stm32h7xx_hal_def.h"
 635              		.file 7 "Drivers/STM32H7xx_HAL_Driver/Inc/stm32h7xx_hal_dma.h"
 636              		.file 8 "Drivers/STM32H7xx_HAL_Driver/Inc/stm32h7xx_hal_tim.h"
 637              		.file 9 "Device/BMI088/Inc/BMI088driver.h"
 638              		.file 10 "Algorithms/Filters/MahonyAHRS.h"
 639              		.file 11 "Algorithms/Control/pid.h"
 640              		.file 12 "Device/USART/Inc/JF_protocol.h"
 641              		.file 13 "Core/Inc/tim.h"
ARM GAS  C:\Users\11464\AppData\Local\Temp\ccilCbG6.s 			page 18

