ARM GAS  C:\Users\11464\AppData\Local\Temp\ccScIo0n.s 			page 1


   1              		.cpu cortex-m7
   2              		.arch armv7e-m
   3              		.fpu fpv5-d16
   4              		.eabi_attribute 28, 1
   5              		.eabi_attribute 20, 1
   6              		.eabi_attribute 21, 1
   7              		.eabi_attribute 23, 3
   8              		.eabi_attribute 24, 1
   9              		.eabi_attribute 25, 1
  10              		.eabi_attribute 26, 1
  11              		.eabi_attribute 30, 1
  12              		.eabi_attribute 34, 1
  13              		.eabi_attribute 18, 4
  14              		.file	"spi.c"
  15              		.text
  16              	.Ltext0:
  17              		.cfi_sections	.debug_frame
  18              		.file 1 "Core/Src/spi.c"
  19              		.section	.text.MX_SPI2_Init,"ax",%progbits
  20              		.align	1
  21              		.global	MX_SPI2_Init
  22              		.syntax unified
  23              		.thumb
  24              		.thumb_func
  26              	MX_SPI2_Init:
  27              	.LFB144:
   1:Core/Src/spi.c **** /* USER CODE BEGIN Header */
   2:Core/Src/spi.c **** /**
   3:Core/Src/spi.c ****   ******************************************************************************
   4:Core/Src/spi.c ****   * @file    spi.c
   5:Core/Src/spi.c ****   * @brief   This file provides code for the configuration
   6:Core/Src/spi.c ****   *          of the SPI instances.
   7:Core/Src/spi.c ****   ******************************************************************************
   8:Core/Src/spi.c ****   * @attention
   9:Core/Src/spi.c ****   *
  10:Core/Src/spi.c ****   * Copyright (c) 2026 STMicroelectronics.
  11:Core/Src/spi.c ****   * All rights reserved.
  12:Core/Src/spi.c ****   *
  13:Core/Src/spi.c ****   * This software is licensed under terms that can be found in the LICENSE file
  14:Core/Src/spi.c ****   * in the root directory of this software component.
  15:Core/Src/spi.c ****   * If no LICENSE file comes with this software, it is provided AS-IS.
  16:Core/Src/spi.c ****   *
  17:Core/Src/spi.c ****   ******************************************************************************
  18:Core/Src/spi.c ****   */
  19:Core/Src/spi.c **** /* USER CODE END Header */
  20:Core/Src/spi.c **** /* Includes ------------------------------------------------------------------*/
  21:Core/Src/spi.c **** #include "spi.h"
  22:Core/Src/spi.c **** 
  23:Core/Src/spi.c **** /* USER CODE BEGIN 0 */
  24:Core/Src/spi.c **** 
  25:Core/Src/spi.c **** /* USER CODE END 0 */
  26:Core/Src/spi.c **** 
  27:Core/Src/spi.c **** SPI_HandleTypeDef hspi2;
  28:Core/Src/spi.c **** 
  29:Core/Src/spi.c **** /* SPI2 init function */
  30:Core/Src/spi.c **** void MX_SPI2_Init(void)
  31:Core/Src/spi.c **** {
ARM GAS  C:\Users\11464\AppData\Local\Temp\ccScIo0n.s 			page 2


  28              		.loc 1 31 1 view -0
  29              		.cfi_startproc
  30              		@ args = 0, pretend = 0, frame = 0
  31              		@ frame_needed = 0, uses_anonymous_args = 0
  32 0000 08B5     		push	{r3, lr}
  33              	.LCFI0:
  34              		.cfi_def_cfa_offset 8
  35              		.cfi_offset 3, -8
  36              		.cfi_offset 14, -4
  32:Core/Src/spi.c **** 
  33:Core/Src/spi.c ****   /* USER CODE BEGIN SPI2_Init 0 */
  34:Core/Src/spi.c **** 
  35:Core/Src/spi.c ****   /* USER CODE END SPI2_Init 0 */
  36:Core/Src/spi.c **** 
  37:Core/Src/spi.c ****   /* USER CODE BEGIN SPI2_Init 1 */
  38:Core/Src/spi.c **** 
  39:Core/Src/spi.c ****   /* USER CODE END SPI2_Init 1 */
  40:Core/Src/spi.c ****   hspi2.Instance = SPI2;
  37              		.loc 1 40 3 view .LVU1
  38              		.loc 1 40 18 is_stmt 0 view .LVU2
  39 0002 1548     		ldr	r0, .L5
  40 0004 154B     		ldr	r3, .L5+4
  41 0006 0360     		str	r3, [r0]
  41:Core/Src/spi.c ****   hspi2.Init.Mode = SPI_MODE_MASTER;
  42              		.loc 1 41 3 is_stmt 1 view .LVU3
  43              		.loc 1 41 19 is_stmt 0 view .LVU4
  44 0008 4FF48003 		mov	r3, #4194304
  45 000c 4360     		str	r3, [r0, #4]
  42:Core/Src/spi.c ****   hspi2.Init.Direction = SPI_DIRECTION_2LINES;
  46              		.loc 1 42 3 is_stmt 1 view .LVU5
  47              		.loc 1 42 24 is_stmt 0 view .LVU6
  48 000e 0023     		movs	r3, #0
  49 0010 8360     		str	r3, [r0, #8]
  43:Core/Src/spi.c ****   hspi2.Init.DataSize = SPI_DATASIZE_8BIT;
  50              		.loc 1 43 3 is_stmt 1 view .LVU7
  51              		.loc 1 43 23 is_stmt 0 view .LVU8
  52 0012 0722     		movs	r2, #7
  53 0014 C260     		str	r2, [r0, #12]
  44:Core/Src/spi.c ****   hspi2.Init.CLKPolarity = SPI_POLARITY_HIGH;
  54              		.loc 1 44 3 is_stmt 1 view .LVU9
  55              		.loc 1 44 26 is_stmt 0 view .LVU10
  56 0016 4FF00072 		mov	r2, #33554432
  57 001a 0261     		str	r2, [r0, #16]
  45:Core/Src/spi.c ****   hspi2.Init.CLKPhase = SPI_PHASE_2EDGE;
  58              		.loc 1 45 3 is_stmt 1 view .LVU11
  59              		.loc 1 45 23 is_stmt 0 view .LVU12
  60 001c 4FF08072 		mov	r2, #16777216
  61 0020 4261     		str	r2, [r0, #20]
  46:Core/Src/spi.c ****   hspi2.Init.NSS = SPI_NSS_SOFT;
  62              		.loc 1 46 3 is_stmt 1 view .LVU13
  63              		.loc 1 46 18 is_stmt 0 view .LVU14
  64 0022 4FF08062 		mov	r2, #67108864
  65 0026 8261     		str	r2, [r0, #24]
  47:Core/Src/spi.c ****   hspi2.Init.BaudRatePrescaler = SPI_BAUDRATEPRESCALER_32;
  66              		.loc 1 47 3 is_stmt 1 view .LVU15
  67              		.loc 1 47 32 is_stmt 0 view .LVU16
  68 0028 4FF08042 		mov	r2, #1073741824
ARM GAS  C:\Users\11464\AppData\Local\Temp\ccScIo0n.s 			page 3


  69 002c C261     		str	r2, [r0, #28]
  48:Core/Src/spi.c ****   hspi2.Init.FirstBit = SPI_FIRSTBIT_MSB;
  70              		.loc 1 48 3 is_stmt 1 view .LVU17
  71              		.loc 1 48 23 is_stmt 0 view .LVU18
  72 002e 0362     		str	r3, [r0, #32]
  49:Core/Src/spi.c ****   hspi2.Init.TIMode = SPI_TIMODE_DISABLE;
  73              		.loc 1 49 3 is_stmt 1 view .LVU19
  74              		.loc 1 49 21 is_stmt 0 view .LVU20
  75 0030 4362     		str	r3, [r0, #36]
  50:Core/Src/spi.c ****   hspi2.Init.CRCCalculation = SPI_CRCCALCULATION_DISABLE;
  76              		.loc 1 50 3 is_stmt 1 view .LVU21
  77              		.loc 1 50 29 is_stmt 0 view .LVU22
  78 0032 8362     		str	r3, [r0, #40]
  51:Core/Src/spi.c ****   hspi2.Init.CRCPolynomial = 0x0;
  79              		.loc 1 51 3 is_stmt 1 view .LVU23
  80              		.loc 1 51 28 is_stmt 0 view .LVU24
  81 0034 C362     		str	r3, [r0, #44]
  52:Core/Src/spi.c ****   hspi2.Init.NSSPMode = SPI_NSS_PULSE_ENABLE;
  82              		.loc 1 52 3 is_stmt 1 view .LVU25
  83              		.loc 1 52 23 is_stmt 0 view .LVU26
  84 0036 4263     		str	r2, [r0, #52]
  53:Core/Src/spi.c ****   hspi2.Init.NSSPolarity = SPI_NSS_POLARITY_LOW;
  85              		.loc 1 53 3 is_stmt 1 view .LVU27
  86              		.loc 1 53 26 is_stmt 0 view .LVU28
  87 0038 8363     		str	r3, [r0, #56]
  54:Core/Src/spi.c ****   hspi2.Init.FifoThreshold = SPI_FIFO_THRESHOLD_01DATA;
  88              		.loc 1 54 3 is_stmt 1 view .LVU29
  89              		.loc 1 54 28 is_stmt 0 view .LVU30
  90 003a C363     		str	r3, [r0, #60]
  55:Core/Src/spi.c ****   hspi2.Init.TxCRCInitializationPattern = SPI_CRC_INITIALIZATION_ALL_ZERO_PATTERN;
  91              		.loc 1 55 3 is_stmt 1 view .LVU31
  92              		.loc 1 55 41 is_stmt 0 view .LVU32
  93 003c 0364     		str	r3, [r0, #64]
  56:Core/Src/spi.c ****   hspi2.Init.RxCRCInitializationPattern = SPI_CRC_INITIALIZATION_ALL_ZERO_PATTERN;
  94              		.loc 1 56 3 is_stmt 1 view .LVU33
  95              		.loc 1 56 41 is_stmt 0 view .LVU34
  96 003e 4364     		str	r3, [r0, #68]
  57:Core/Src/spi.c ****   hspi2.Init.MasterSSIdleness = SPI_MASTER_SS_IDLENESS_00CYCLE;
  97              		.loc 1 57 3 is_stmt 1 view .LVU35
  98              		.loc 1 57 31 is_stmt 0 view .LVU36
  99 0040 8364     		str	r3, [r0, #72]
  58:Core/Src/spi.c ****   hspi2.Init.MasterInterDataIdleness = SPI_MASTER_INTERDATA_IDLENESS_00CYCLE;
 100              		.loc 1 58 3 is_stmt 1 view .LVU37
 101              		.loc 1 58 38 is_stmt 0 view .LVU38
 102 0042 C364     		str	r3, [r0, #76]
  59:Core/Src/spi.c ****   hspi2.Init.MasterReceiverAutoSusp = SPI_MASTER_RX_AUTOSUSP_DISABLE;
 103              		.loc 1 59 3 is_stmt 1 view .LVU39
 104              		.loc 1 59 37 is_stmt 0 view .LVU40
 105 0044 0365     		str	r3, [r0, #80]
  60:Core/Src/spi.c ****   hspi2.Init.MasterKeepIOState = SPI_MASTER_KEEP_IO_STATE_DISABLE;
 106              		.loc 1 60 3 is_stmt 1 view .LVU41
 107              		.loc 1 60 32 is_stmt 0 view .LVU42
 108 0046 4365     		str	r3, [r0, #84]
  61:Core/Src/spi.c ****   hspi2.Init.IOSwap = SPI_IO_SWAP_DISABLE;
 109              		.loc 1 61 3 is_stmt 1 view .LVU43
 110              		.loc 1 61 21 is_stmt 0 view .LVU44
 111 0048 8365     		str	r3, [r0, #88]
ARM GAS  C:\Users\11464\AppData\Local\Temp\ccScIo0n.s 			page 4


  62:Core/Src/spi.c ****   if (HAL_SPI_Init(&hspi2) != HAL_OK)
 112              		.loc 1 62 3 is_stmt 1 view .LVU45
 113              		.loc 1 62 7 is_stmt 0 view .LVU46
 114 004a FFF7FEFF 		bl	HAL_SPI_Init
 115              	.LVL0:
 116              		.loc 1 62 6 discriminator 1 view .LVU47
 117 004e 00B9     		cbnz	r0, .L4
 118              	.L1:
  63:Core/Src/spi.c ****   {
  64:Core/Src/spi.c ****     Error_Handler();
  65:Core/Src/spi.c ****   }
  66:Core/Src/spi.c ****   /* USER CODE BEGIN SPI2_Init 2 */
  67:Core/Src/spi.c **** 
  68:Core/Src/spi.c ****   /* USER CODE END SPI2_Init 2 */
  69:Core/Src/spi.c **** 
  70:Core/Src/spi.c **** }
 119              		.loc 1 70 1 view .LVU48
 120 0050 08BD     		pop	{r3, pc}
 121              	.L4:
  64:Core/Src/spi.c ****   }
 122              		.loc 1 64 5 is_stmt 1 view .LVU49
 123 0052 FFF7FEFF 		bl	Error_Handler
 124              	.LVL1:
 125              		.loc 1 70 1 is_stmt 0 view .LVU50
 126 0056 FBE7     		b	.L1
 127              	.L6:
 128              		.align	2
 129              	.L5:
 130 0058 00000000 		.word	hspi2
 131 005c 00380040 		.word	1073756160
 132              		.cfi_endproc
 133              	.LFE144:
 135              		.section	.text.HAL_SPI_MspInit,"ax",%progbits
 136              		.align	1
 137              		.global	HAL_SPI_MspInit
 138              		.syntax unified
 139              		.thumb
 140              		.thumb_func
 142              	HAL_SPI_MspInit:
 143              	.LVL2:
 144              	.LFB145:
  71:Core/Src/spi.c **** 
  72:Core/Src/spi.c **** void HAL_SPI_MspInit(SPI_HandleTypeDef* spiHandle)
  73:Core/Src/spi.c **** {
 145              		.loc 1 73 1 is_stmt 1 view -0
 146              		.cfi_startproc
 147              		@ args = 0, pretend = 0, frame = 224
 148              		@ frame_needed = 0, uses_anonymous_args = 0
 149              		.loc 1 73 1 is_stmt 0 view .LVU52
 150 0000 F0B5     		push	{r4, r5, r6, r7, lr}
 151              	.LCFI1:
 152              		.cfi_def_cfa_offset 20
 153              		.cfi_offset 4, -20
 154              		.cfi_offset 5, -16
 155              		.cfi_offset 6, -12
 156              		.cfi_offset 7, -8
 157              		.cfi_offset 14, -4
ARM GAS  C:\Users\11464\AppData\Local\Temp\ccScIo0n.s 			page 5


 158 0002 B9B0     		sub	sp, sp, #228
 159              	.LCFI2:
 160              		.cfi_def_cfa_offset 248
 161 0004 0446     		mov	r4, r0
  74:Core/Src/spi.c **** 
  75:Core/Src/spi.c ****   GPIO_InitTypeDef GPIO_InitStruct = {0};
 162              		.loc 1 75 3 is_stmt 1 view .LVU53
 163              		.loc 1 75 20 is_stmt 0 view .LVU54
 164 0006 0021     		movs	r1, #0
 165 0008 3391     		str	r1, [sp, #204]
 166 000a 3491     		str	r1, [sp, #208]
 167 000c 3591     		str	r1, [sp, #212]
 168 000e 3691     		str	r1, [sp, #216]
 169 0010 3791     		str	r1, [sp, #220]
  76:Core/Src/spi.c ****   RCC_PeriphCLKInitTypeDef PeriphClkInitStruct = {0};
 170              		.loc 1 76 3 is_stmt 1 view .LVU55
 171              		.loc 1 76 28 is_stmt 0 view .LVU56
 172 0012 B822     		movs	r2, #184
 173 0014 04A8     		add	r0, sp, #16
 174              	.LVL3:
 175              		.loc 1 76 28 view .LVU57
 176 0016 FFF7FEFF 		bl	memset
 177              	.LVL4:
  77:Core/Src/spi.c ****   if(spiHandle->Instance==SPI2)
 178              		.loc 1 77 3 is_stmt 1 view .LVU58
 179              		.loc 1 77 15 is_stmt 0 view .LVU59
 180 001a 2268     		ldr	r2, [r4]
 181              		.loc 1 77 5 view .LVU60
 182 001c 284B     		ldr	r3, .L13
 183 001e 9A42     		cmp	r2, r3
 184 0020 01D0     		beq	.L11
 185              	.LVL5:
 186              	.L7:
  78:Core/Src/spi.c ****   {
  79:Core/Src/spi.c ****   /* USER CODE BEGIN SPI2_MspInit 0 */
  80:Core/Src/spi.c **** 
  81:Core/Src/spi.c ****   /* USER CODE END SPI2_MspInit 0 */
  82:Core/Src/spi.c **** 
  83:Core/Src/spi.c ****   /** Initializes the peripherals clock
  84:Core/Src/spi.c ****   */
  85:Core/Src/spi.c ****     PeriphClkInitStruct.PeriphClockSelection = RCC_PERIPHCLK_SPI2;
  86:Core/Src/spi.c ****     PeriphClkInitStruct.Spi123ClockSelection = RCC_SPI123CLKSOURCE_PLL;
  87:Core/Src/spi.c ****     if (HAL_RCCEx_PeriphCLKConfig(&PeriphClkInitStruct) != HAL_OK)
  88:Core/Src/spi.c ****     {
  89:Core/Src/spi.c ****       Error_Handler();
  90:Core/Src/spi.c ****     }
  91:Core/Src/spi.c **** 
  92:Core/Src/spi.c ****     /* SPI2 clock enable */
  93:Core/Src/spi.c ****     __HAL_RCC_SPI2_CLK_ENABLE();
  94:Core/Src/spi.c **** 
  95:Core/Src/spi.c ****     __HAL_RCC_GPIOC_CLK_ENABLE();
  96:Core/Src/spi.c ****     __HAL_RCC_GPIOB_CLK_ENABLE();
  97:Core/Src/spi.c ****     /**SPI2 GPIO Configuration
  98:Core/Src/spi.c ****     PC1     ------> SPI2_MOSI
  99:Core/Src/spi.c ****     PC2_C     ------> SPI2_MISO
 100:Core/Src/spi.c ****     PB13     ------> SPI2_SCK
 101:Core/Src/spi.c ****     */
ARM GAS  C:\Users\11464\AppData\Local\Temp\ccScIo0n.s 			page 6


 102:Core/Src/spi.c ****     GPIO_InitStruct.Pin = GPIO_PIN_1|GPIO_PIN_2;
 103:Core/Src/spi.c ****     GPIO_InitStruct.Mode = GPIO_MODE_AF_PP;
 104:Core/Src/spi.c ****     GPIO_InitStruct.Pull = GPIO_NOPULL;
 105:Core/Src/spi.c ****     GPIO_InitStruct.Speed = GPIO_SPEED_FREQ_VERY_HIGH;
 106:Core/Src/spi.c ****     GPIO_InitStruct.Alternate = GPIO_AF5_SPI2;
 107:Core/Src/spi.c ****     HAL_GPIO_Init(GPIOC, &GPIO_InitStruct);
 108:Core/Src/spi.c **** 
 109:Core/Src/spi.c ****     GPIO_InitStruct.Pin = GPIO_PIN_13;
 110:Core/Src/spi.c ****     GPIO_InitStruct.Mode = GPIO_MODE_AF_PP;
 111:Core/Src/spi.c ****     GPIO_InitStruct.Pull = GPIO_NOPULL;
 112:Core/Src/spi.c ****     GPIO_InitStruct.Speed = GPIO_SPEED_FREQ_VERY_HIGH;
 113:Core/Src/spi.c ****     GPIO_InitStruct.Alternate = GPIO_AF5_SPI2;
 114:Core/Src/spi.c ****     HAL_GPIO_Init(GPIOB, &GPIO_InitStruct);
 115:Core/Src/spi.c **** 
 116:Core/Src/spi.c ****   /* USER CODE BEGIN SPI2_MspInit 1 */
 117:Core/Src/spi.c **** 
 118:Core/Src/spi.c ****   /* USER CODE END SPI2_MspInit 1 */
 119:Core/Src/spi.c ****   }
 120:Core/Src/spi.c **** }
 187              		.loc 1 120 1 view .LVU61
 188 0022 39B0     		add	sp, sp, #228
 189              	.LCFI3:
 190              		.cfi_remember_state
 191              		.cfi_def_cfa_offset 20
 192              		@ sp needed
 193 0024 F0BD     		pop	{r4, r5, r6, r7, pc}
 194              	.LVL6:
 195              	.L11:
 196              	.LCFI4:
 197              		.cfi_restore_state
  85:Core/Src/spi.c ****     PeriphClkInitStruct.Spi123ClockSelection = RCC_SPI123CLKSOURCE_PLL;
 198              		.loc 1 85 5 is_stmt 1 view .LVU62
  85:Core/Src/spi.c ****     PeriphClkInitStruct.Spi123ClockSelection = RCC_SPI123CLKSOURCE_PLL;
 199              		.loc 1 85 46 is_stmt 0 view .LVU63
 200 0026 4FF48052 		mov	r2, #4096
 201 002a 0023     		movs	r3, #0
 202 002c CDE90423 		strd	r2, [sp, #16]
  86:Core/Src/spi.c ****     if (HAL_RCCEx_PeriphCLKConfig(&PeriphClkInitStruct) != HAL_OK)
 203              		.loc 1 86 5 is_stmt 1 view .LVU64
  87:Core/Src/spi.c ****     {
 204              		.loc 1 87 5 view .LVU65
  87:Core/Src/spi.c ****     {
 205              		.loc 1 87 9 is_stmt 0 view .LVU66
 206 0030 04A8     		add	r0, sp, #16
 207 0032 FFF7FEFF 		bl	HAL_RCCEx_PeriphCLKConfig
 208              	.LVL7:
  87:Core/Src/spi.c ****     {
 209              		.loc 1 87 8 discriminator 1 view .LVU67
 210 0036 0028     		cmp	r0, #0
 211 0038 3ED1     		bne	.L12
 212              	.L9:
  93:Core/Src/spi.c **** 
 213              		.loc 1 93 5 is_stmt 1 view .LVU68
 214              	.LBB2:
  93:Core/Src/spi.c **** 
 215              		.loc 1 93 5 view .LVU69
  93:Core/Src/spi.c **** 
ARM GAS  C:\Users\11464\AppData\Local\Temp\ccScIo0n.s 			page 7


 216              		.loc 1 93 5 view .LVU70
 217 003a 224B     		ldr	r3, .L13+4
 218 003c D3F8E820 		ldr	r2, [r3, #232]
 219 0040 42F48042 		orr	r2, r2, #16384
 220 0044 C3F8E820 		str	r2, [r3, #232]
  93:Core/Src/spi.c **** 
 221              		.loc 1 93 5 view .LVU71
 222 0048 D3F8E820 		ldr	r2, [r3, #232]
 223 004c 02F48042 		and	r2, r2, #16384
 224 0050 0192     		str	r2, [sp, #4]
  93:Core/Src/spi.c **** 
 225              		.loc 1 93 5 view .LVU72
 226 0052 019A     		ldr	r2, [sp, #4]
 227              	.LBE2:
  93:Core/Src/spi.c **** 
 228              		.loc 1 93 5 view .LVU73
  95:Core/Src/spi.c ****     __HAL_RCC_GPIOB_CLK_ENABLE();
 229              		.loc 1 95 5 view .LVU74
 230              	.LBB3:
  95:Core/Src/spi.c ****     __HAL_RCC_GPIOB_CLK_ENABLE();
 231              		.loc 1 95 5 view .LVU75
  95:Core/Src/spi.c ****     __HAL_RCC_GPIOB_CLK_ENABLE();
 232              		.loc 1 95 5 view .LVU76
 233 0054 D3F8E020 		ldr	r2, [r3, #224]
 234 0058 42F00402 		orr	r2, r2, #4
 235 005c C3F8E020 		str	r2, [r3, #224]
  95:Core/Src/spi.c ****     __HAL_RCC_GPIOB_CLK_ENABLE();
 236              		.loc 1 95 5 view .LVU77
 237 0060 D3F8E020 		ldr	r2, [r3, #224]
 238 0064 02F00402 		and	r2, r2, #4
 239 0068 0292     		str	r2, [sp, #8]
  95:Core/Src/spi.c ****     __HAL_RCC_GPIOB_CLK_ENABLE();
 240              		.loc 1 95 5 view .LVU78
 241 006a 029A     		ldr	r2, [sp, #8]
 242              	.LBE3:
  95:Core/Src/spi.c ****     __HAL_RCC_GPIOB_CLK_ENABLE();
 243              		.loc 1 95 5 view .LVU79
  96:Core/Src/spi.c ****     /**SPI2 GPIO Configuration
 244              		.loc 1 96 5 view .LVU80
 245              	.LBB4:
  96:Core/Src/spi.c ****     /**SPI2 GPIO Configuration
 246              		.loc 1 96 5 view .LVU81
  96:Core/Src/spi.c ****     /**SPI2 GPIO Configuration
 247              		.loc 1 96 5 view .LVU82
 248 006c D3F8E020 		ldr	r2, [r3, #224]
 249 0070 42F00202 		orr	r2, r2, #2
 250 0074 C3F8E020 		str	r2, [r3, #224]
  96:Core/Src/spi.c ****     /**SPI2 GPIO Configuration
 251              		.loc 1 96 5 view .LVU83
 252 0078 D3F8E030 		ldr	r3, [r3, #224]
 253 007c 03F00203 		and	r3, r3, #2
 254 0080 0393     		str	r3, [sp, #12]
  96:Core/Src/spi.c ****     /**SPI2 GPIO Configuration
 255              		.loc 1 96 5 view .LVU84
 256 0082 039B     		ldr	r3, [sp, #12]
 257              	.LBE4:
  96:Core/Src/spi.c ****     /**SPI2 GPIO Configuration
ARM GAS  C:\Users\11464\AppData\Local\Temp\ccScIo0n.s 			page 8


 258              		.loc 1 96 5 view .LVU85
 102:Core/Src/spi.c ****     GPIO_InitStruct.Mode = GPIO_MODE_AF_PP;
 259              		.loc 1 102 5 view .LVU86
 102:Core/Src/spi.c ****     GPIO_InitStruct.Mode = GPIO_MODE_AF_PP;
 260              		.loc 1 102 25 is_stmt 0 view .LVU87
 261 0084 0623     		movs	r3, #6
 262 0086 3393     		str	r3, [sp, #204]
 103:Core/Src/spi.c ****     GPIO_InitStruct.Pull = GPIO_NOPULL;
 263              		.loc 1 103 5 is_stmt 1 view .LVU88
 103:Core/Src/spi.c ****     GPIO_InitStruct.Pull = GPIO_NOPULL;
 264              		.loc 1 103 26 is_stmt 0 view .LVU89
 265 0088 0224     		movs	r4, #2
 266              	.LVL8:
 103:Core/Src/spi.c ****     GPIO_InitStruct.Pull = GPIO_NOPULL;
 267              		.loc 1 103 26 view .LVU90
 268 008a 3494     		str	r4, [sp, #208]
 104:Core/Src/spi.c ****     GPIO_InitStruct.Speed = GPIO_SPEED_FREQ_VERY_HIGH;
 269              		.loc 1 104 5 is_stmt 1 view .LVU91
 104:Core/Src/spi.c ****     GPIO_InitStruct.Speed = GPIO_SPEED_FREQ_VERY_HIGH;
 270              		.loc 1 104 26 is_stmt 0 view .LVU92
 271 008c 0025     		movs	r5, #0
 272 008e 3595     		str	r5, [sp, #212]
 105:Core/Src/spi.c ****     GPIO_InitStruct.Alternate = GPIO_AF5_SPI2;
 273              		.loc 1 105 5 is_stmt 1 view .LVU93
 105:Core/Src/spi.c ****     GPIO_InitStruct.Alternate = GPIO_AF5_SPI2;
 274              		.loc 1 105 27 is_stmt 0 view .LVU94
 275 0090 0326     		movs	r6, #3
 276 0092 3696     		str	r6, [sp, #216]
 106:Core/Src/spi.c ****     HAL_GPIO_Init(GPIOC, &GPIO_InitStruct);
 277              		.loc 1 106 5 is_stmt 1 view .LVU95
 106:Core/Src/spi.c ****     HAL_GPIO_Init(GPIOC, &GPIO_InitStruct);
 278              		.loc 1 106 31 is_stmt 0 view .LVU96
 279 0094 0527     		movs	r7, #5
 280 0096 3797     		str	r7, [sp, #220]
 107:Core/Src/spi.c **** 
 281              		.loc 1 107 5 is_stmt 1 view .LVU97
 282 0098 33A9     		add	r1, sp, #204
 283 009a 0B48     		ldr	r0, .L13+8
 284 009c FFF7FEFF 		bl	HAL_GPIO_Init
 285              	.LVL9:
 109:Core/Src/spi.c ****     GPIO_InitStruct.Mode = GPIO_MODE_AF_PP;
 286              		.loc 1 109 5 view .LVU98
 109:Core/Src/spi.c ****     GPIO_InitStruct.Mode = GPIO_MODE_AF_PP;
 287              		.loc 1 109 25 is_stmt 0 view .LVU99
 288 00a0 4FF40053 		mov	r3, #8192
 289 00a4 3393     		str	r3, [sp, #204]
 110:Core/Src/spi.c ****     GPIO_InitStruct.Pull = GPIO_NOPULL;
 290              		.loc 1 110 5 is_stmt 1 view .LVU100
 110:Core/Src/spi.c ****     GPIO_InitStruct.Pull = GPIO_NOPULL;
 291              		.loc 1 110 26 is_stmt 0 view .LVU101
 292 00a6 3494     		str	r4, [sp, #208]
 111:Core/Src/spi.c ****     GPIO_InitStruct.Speed = GPIO_SPEED_FREQ_VERY_HIGH;
 293              		.loc 1 111 5 is_stmt 1 view .LVU102
 111:Core/Src/spi.c ****     GPIO_InitStruct.Speed = GPIO_SPEED_FREQ_VERY_HIGH;
 294              		.loc 1 111 26 is_stmt 0 view .LVU103
 295 00a8 3595     		str	r5, [sp, #212]
 112:Core/Src/spi.c ****     GPIO_InitStruct.Alternate = GPIO_AF5_SPI2;
ARM GAS  C:\Users\11464\AppData\Local\Temp\ccScIo0n.s 			page 9


 296              		.loc 1 112 5 is_stmt 1 view .LVU104
 112:Core/Src/spi.c ****     GPIO_InitStruct.Alternate = GPIO_AF5_SPI2;
 297              		.loc 1 112 27 is_stmt 0 view .LVU105
 298 00aa 3696     		str	r6, [sp, #216]
 113:Core/Src/spi.c ****     HAL_GPIO_Init(GPIOB, &GPIO_InitStruct);
 299              		.loc 1 113 5 is_stmt 1 view .LVU106
 113:Core/Src/spi.c ****     HAL_GPIO_Init(GPIOB, &GPIO_InitStruct);
 300              		.loc 1 113 31 is_stmt 0 view .LVU107
 301 00ac 3797     		str	r7, [sp, #220]
 114:Core/Src/spi.c **** 
 302              		.loc 1 114 5 is_stmt 1 view .LVU108
 303 00ae 33A9     		add	r1, sp, #204
 304 00b0 0648     		ldr	r0, .L13+12
 305 00b2 FFF7FEFF 		bl	HAL_GPIO_Init
 306              	.LVL10:
 307              		.loc 1 120 1 is_stmt 0 view .LVU109
 308 00b6 B4E7     		b	.L7
 309              	.LVL11:
 310              	.L12:
  89:Core/Src/spi.c ****     }
 311              		.loc 1 89 7 is_stmt 1 view .LVU110
 312 00b8 FFF7FEFF 		bl	Error_Handler
 313              	.LVL12:
 314 00bc BDE7     		b	.L9
 315              	.L14:
 316 00be 00BF     		.align	2
 317              	.L13:
 318 00c0 00380040 		.word	1073756160
 319 00c4 00440258 		.word	1476543488
 320 00c8 00080258 		.word	1476528128
 321 00cc 00040258 		.word	1476527104
 322              		.cfi_endproc
 323              	.LFE145:
 325              		.section	.text.HAL_SPI_MspDeInit,"ax",%progbits
 326              		.align	1
 327              		.global	HAL_SPI_MspDeInit
 328              		.syntax unified
 329              		.thumb
 330              		.thumb_func
 332              	HAL_SPI_MspDeInit:
 333              	.LVL13:
 334              	.LFB146:
 121:Core/Src/spi.c **** 
 122:Core/Src/spi.c **** void HAL_SPI_MspDeInit(SPI_HandleTypeDef* spiHandle)
 123:Core/Src/spi.c **** {
 335              		.loc 1 123 1 view -0
 336              		.cfi_startproc
 337              		@ args = 0, pretend = 0, frame = 0
 338              		@ frame_needed = 0, uses_anonymous_args = 0
 339              		.loc 1 123 1 is_stmt 0 view .LVU112
 340 0000 08B5     		push	{r3, lr}
 341              	.LCFI5:
 342              		.cfi_def_cfa_offset 8
 343              		.cfi_offset 3, -8
 344              		.cfi_offset 14, -4
 124:Core/Src/spi.c **** 
 125:Core/Src/spi.c ****   if(spiHandle->Instance==SPI2)
ARM GAS  C:\Users\11464\AppData\Local\Temp\ccScIo0n.s 			page 10


 345              		.loc 1 125 3 is_stmt 1 view .LVU113
 346              		.loc 1 125 15 is_stmt 0 view .LVU114
 347 0002 0268     		ldr	r2, [r0]
 348              		.loc 1 125 5 view .LVU115
 349 0004 0A4B     		ldr	r3, .L19
 350 0006 9A42     		cmp	r2, r3
 351 0008 00D0     		beq	.L18
 352              	.LVL14:
 353              	.L15:
 126:Core/Src/spi.c ****   {
 127:Core/Src/spi.c ****   /* USER CODE BEGIN SPI2_MspDeInit 0 */
 128:Core/Src/spi.c **** 
 129:Core/Src/spi.c ****   /* USER CODE END SPI2_MspDeInit 0 */
 130:Core/Src/spi.c ****     /* Peripheral clock disable */
 131:Core/Src/spi.c ****     __HAL_RCC_SPI2_CLK_DISABLE();
 132:Core/Src/spi.c **** 
 133:Core/Src/spi.c ****     /**SPI2 GPIO Configuration
 134:Core/Src/spi.c ****     PC1     ------> SPI2_MOSI
 135:Core/Src/spi.c ****     PC2_C     ------> SPI2_MISO
 136:Core/Src/spi.c ****     PB13     ------> SPI2_SCK
 137:Core/Src/spi.c ****     */
 138:Core/Src/spi.c ****     HAL_GPIO_DeInit(GPIOC, GPIO_PIN_1|GPIO_PIN_2);
 139:Core/Src/spi.c **** 
 140:Core/Src/spi.c ****     HAL_GPIO_DeInit(GPIOB, GPIO_PIN_13);
 141:Core/Src/spi.c **** 
 142:Core/Src/spi.c ****   /* USER CODE BEGIN SPI2_MspDeInit 1 */
 143:Core/Src/spi.c **** 
 144:Core/Src/spi.c ****   /* USER CODE END SPI2_MspDeInit 1 */
 145:Core/Src/spi.c ****   }
 146:Core/Src/spi.c **** }
 354              		.loc 1 146 1 view .LVU116
 355 000a 08BD     		pop	{r3, pc}
 356              	.LVL15:
 357              	.L18:
 131:Core/Src/spi.c **** 
 358              		.loc 1 131 5 is_stmt 1 view .LVU117
 359 000c 094A     		ldr	r2, .L19+4
 360 000e D2F8E830 		ldr	r3, [r2, #232]
 361 0012 23F48043 		bic	r3, r3, #16384
 362 0016 C2F8E830 		str	r3, [r2, #232]
 138:Core/Src/spi.c **** 
 363              		.loc 1 138 5 view .LVU118
 364 001a 0621     		movs	r1, #6
 365 001c 0648     		ldr	r0, .L19+8
 366              	.LVL16:
 138:Core/Src/spi.c **** 
 367              		.loc 1 138 5 is_stmt 0 view .LVU119
 368 001e FFF7FEFF 		bl	HAL_GPIO_DeInit
 369              	.LVL17:
 140:Core/Src/spi.c **** 
 370              		.loc 1 140 5 is_stmt 1 view .LVU120
 371 0022 4FF40051 		mov	r1, #8192
 372 0026 0548     		ldr	r0, .L19+12
 373 0028 FFF7FEFF 		bl	HAL_GPIO_DeInit
 374              	.LVL18:
 375              		.loc 1 146 1 is_stmt 0 view .LVU121
 376 002c EDE7     		b	.L15
ARM GAS  C:\Users\11464\AppData\Local\Temp\ccScIo0n.s 			page 11


 377              	.L20:
 378 002e 00BF     		.align	2
 379              	.L19:
 380 0030 00380040 		.word	1073756160
 381 0034 00440258 		.word	1476543488
 382 0038 00080258 		.word	1476528128
 383 003c 00040258 		.word	1476527104
 384              		.cfi_endproc
 385              	.LFE146:
 387              		.global	hspi2
 388              		.section	.bss.hspi2,"aw",%nobits
 389              		.align	2
 392              	hspi2:
 393 0000 00000000 		.space	136
 393      00000000 
 393      00000000 
 393      00000000 
 393      00000000 
 394              		.text
 395              	.Letext0:
 396              		.file 2 "D:/ec_env/arm-gnu-toolchain/arm-none-eabi/include/machine/_default_types.h"
 397              		.file 3 "D:/ec_env/arm-gnu-toolchain/arm-none-eabi/include/sys/_stdint.h"
 398              		.file 4 "Drivers/CMSIS/Device/ST/STM32H7xx/Include/stm32h723xx.h"
 399              		.file 5 "Drivers/STM32H7xx_HAL_Driver/Inc/stm32h7xx_hal_def.h"
 400              		.file 6 "Drivers/STM32H7xx_HAL_Driver/Inc/stm32h7xx_hal_rcc_ex.h"
 401              		.file 7 "Drivers/STM32H7xx_HAL_Driver/Inc/stm32h7xx_hal_gpio.h"
 402              		.file 8 "Drivers/STM32H7xx_HAL_Driver/Inc/stm32h7xx_hal_dma.h"
 403              		.file 9 "Drivers/STM32H7xx_HAL_Driver/Inc/stm32h7xx_hal_spi.h"
 404              		.file 10 "Core/Inc/spi.h"
 405              		.file 11 "Core/Inc/main.h"
 406              		.file 12 "<built-in>"
ARM GAS  C:\Users\11464\AppData\Local\Temp\ccScIo0n.s 			page 12

